; Function Attrs: mustprogress uwtable
define hidden void @_ZN6cvtest7PrintToERKNS_6UseRoiEPSo(ptr noundef nonnull readonly align 1 captures(none) dereferenceable(1) %0, ptr noundef %1) local_unnamed_addr #4 {
  %3 = load i8, ptr %0, align 1, !tbaa !183, !range !185, !noundef !186
  %4 = trunc nuw i8 %3 to i1
  br i1 %4, label %5, label %7

5:                                                ; preds = %2
  %6 = tail call noundef nonnull align 8 dereferenceable(8) ptr @_ZSt16__ostream_insertIcSt11char_traitsIcEERSt13basic_ostreamIT_T0_ES6_PKS3_l(ptr noundef nonnull align 8 dereferenceable(8) %1, ptr noundef nonnull @.str.49, i64 noundef 10)
  br label %9

7:                                                ; preds = %2
  %8 = tail call noundef nonnull align 8 dereferenceable(8) ptr @_ZSt16__ostream_insertIcSt11char_traitsIcEERSt13basic_ostreamIT_T0_ES6_PKS3_l(ptr noundef nonnull align 8 dereferenceable(8) %1, ptr noundef nonnull @.str.50, i64 noundef 12)
  br label %9

9:                                                ; preds = %7, %5
  ret void
}